target datalayout = "e-m:e-p270:32:32-p271:32:32-p272:64:64-i64:64-i128:128-f80:128-n8:16:32:64-S128"
target triple = "x86_64-unknown-linux-gnu"

%"class.sat::literal" = type { i32 }
%class.svector.5 = type { %class.vector.6 }
%class.vector.6 = type { ptr }
%struct.mk_bounded_pp = type <{ ptr, ptr, i32, [4 x i8] }>
%class.ptr_vector.38 = type { %class.vector.39 }
%class.vector.39 = type { ptr }
%"class.smt::theory" = type <{ ptr, i32, [4 x i8], ptr, ptr, %class.ptr_vector.38, %class.svector.5, i32, i8, [3 x i8] }>
%class.obj_ref = type { ptr, ptr }
%"class.smt::theory_seq::nc" = type { %class.obj_ref, %"class.sat::literal", ptr }

@.str.7 = private unnamed_addr constant [2 x i8] c"\0A\00", align 1
@.str.52 = private unnamed_addr constant [5 x i8] c"not \00", align 1
@.str.53 = private unnamed_addr constant [6 x i8] c"  <- \00", align 1

; Function Attrs: mustprogress nounwind uwtable
define linkonce_odr hidden noundef ptr @_ZNK3smt10theory_seq2nc4depsEv(ptr noundef nonnull align 8 dereferenceable(32) %this) #4 comdat align 2 {
entry:
  %this.addr = alloca ptr, align 8
  store ptr %this, ptr %this.addr, align 8
  %this1 = load ptr, ptr %this.addr, align 8
  %m_dep = getelementptr inbounds %"class.smt::theory_seq::nc", ptr %this1, i32 0, i32 2
  %0 = load ptr, ptr %m_dep, align 8
  ret ptr %0
}

; Function Attrs: mustprogress uwtable
define linkonce_odr hidden noundef nonnull align 8 dereferenceable(8) ptr @_ZlsRSoRK13mk_bounded_pp(ptr noundef nonnull align 8 dereferenceable(8) %out, ptr noundef nonnull align 8 dereferenceable(20) %p) #5 comdat {
entry:
  %out.addr = alloca ptr, align 8
  %p.addr = alloca ptr, align 8
  store ptr %out, ptr %out.addr, align 8
  store ptr %p, ptr %p.addr, align 8
  %0 = load ptr, ptr %out.addr, align 8
  %1 = load ptr, ptr %p.addr, align 8
  %m_manager = getelementptr inbounds %struct.mk_bounded_pp, ptr %1, i32 0, i32 1
  %2 = load ptr, ptr %m_manager, align 8
  %3 = load ptr, ptr %p.addr, align 8
  %m_ast = getelementptr inbounds %struct.mk_bounded_pp, ptr %3, i32 0, i32 0
  %4 = load ptr, ptr %m_ast, align 8
  %5 = load ptr, ptr %p.addr, align 8
  %m_depth = getelementptr inbounds %struct.mk_bounded_pp, ptr %5, i32 0, i32 2
  %6 = load i32, ptr %m_depth, align 8
  call void @_Z17ast_ll_bounded_ppRSoR11ast_managerP3astj(ptr noundef nonnull align 8 dereferenceable(8) %0, ptr noundef nonnull align 8 dereferenceable(976) %2, ptr noundef %4, i32 noundef %6)
  %7 = load ptr, ptr %out.addr, align 8
  ret ptr %7
}

; Function Attrs: mustprogress nounwind uwtable
define linkonce_odr hidden void @_ZN13mk_bounded_ppC2EP3astR11ast_managerj(ptr noundef nonnull align 8 dereferenceable(20) %this, ptr noundef %a, ptr noundef nonnull align 8 dereferenceable(976) %m, i32 noundef %depth) unnamed_addr #4 comdat align 2 {
entry:
  %this.addr = alloca ptr, align 8
  %a.addr = alloca ptr, align 8
  %m.addr = alloca ptr, align 8
  %depth.addr = alloca i32, align 4
  store ptr %this, ptr %this.addr, align 8
  store ptr %a, ptr %a.addr, align 8
  store ptr %m, ptr %m.addr, align 8
  store i32 %depth, ptr %depth.addr, align 4
  %this1 = load ptr, ptr %this.addr, align 8
  %m_ast = getelementptr inbounds %struct.mk_bounded_pp, ptr %this1, i32 0, i32 0
  %0 = load ptr, ptr %a.addr, align 8
  store ptr %0, ptr %m_ast, align 8
  %m_manager = getelementptr inbounds %struct.mk_bounded_pp, ptr %this1, i32 0, i32 1
  %1 = load ptr, ptr %m.addr, align 8
  store ptr %1, ptr %m_manager, align 8
  %m_depth = getelementptr inbounds %struct.mk_bounded_pp, ptr %this1, i32 0, i32 2
  %2 = load i32, ptr %depth.addr, align 4
  store i32 %2, ptr %m_depth, align 8
  ret void
}

; Function Attrs: mustprogress nounwind uwtable
define linkonce_odr hidden noundef ptr @_ZNK7obj_refI4expr11ast_managerEcvPS0_Ev(ptr noundef nonnull align 8 dereferenceable(16) %this) #4 comdat align 2 {
entry:
  %this.addr = alloca ptr, align 8
  store ptr %this, ptr %this.addr, align 8
  %this1 = load ptr, ptr %this.addr, align 8
  %m_obj = getelementptr inbounds %class.obj_ref, ptr %this1, i32 0, i32 0
  %0 = load ptr, ptr %m_obj, align 8
  ret ptr %0
}

; Function Attrs: mustprogress nounwind uwtable
define linkonce_odr hidden noundef nonnull align 8 dereferenceable(16) ptr @_ZNK3smt10theory_seq2nc8containsEv(ptr noundef nonnull align 8 dereferenceable(32) %this) #4 comdat align 2 {
entry:
  %this.addr = alloca ptr, align 8
  store ptr %this, ptr %this.addr, align 8
  %this1 = load ptr, ptr %this.addr, align 8
  %m_contains = getelementptr inbounds %"class.smt::theory_seq::nc", ptr %this1, i32 0, i32 0
  ret ptr %m_contains
}

; Function Attrs: mustprogress uwtable
define hidden noundef nonnull align 8 dereferenceable(8) ptr @_ZNK3smt10theory_seq10display_ncERSoRKNS0_2ncE(ptr noundef nonnull align 8 dereferenceable(4328) %this, ptr noundef nonnull align 8 dereferenceable(8) %out, ptr noundef nonnull align 8 dereferenceable(32) %nc) #5 align 2 {
entry:
  %this.addr = alloca ptr, align 8
  %out.addr = alloca ptr, align 8
  %nc.addr = alloca ptr, align 8
  %ref.tmp = alloca %struct.mk_bounded_pp, align 8
  store ptr %this, ptr %this.addr, align 8
  store ptr %out, ptr %out.addr, align 8
  store ptr %nc, ptr %nc.addr, align 8
  %this1 = load ptr, ptr %this.addr, align 8
  %0 = load ptr, ptr %out.addr, align 8
  %call = call noundef nonnull align 8 dereferenceable(8) ptr @_ZStlsISt11char_traitsIcEERSt13basic_ostreamIcT_ES5_PKc(ptr noundef nonnull align 8 dereferenceable(8) %0, ptr noundef @.str.52)
  %1 = load ptr, ptr %nc.addr, align 8
  %call2 = call noundef nonnull align 8 dereferenceable(16) ptr @_ZNK3smt10theory_seq2nc8containsEv(ptr noundef nonnull align 8 dereferenceable(32) %1)
  %call3 = call noundef ptr @_ZNK7obj_refI4expr11ast_managerEcvPS0_Ev(ptr noundef nonnull align 8 dereferenceable(16) %call2)
  %m = getelementptr inbounds %"class.smt::theory", ptr %this1, i32 0, i32 4
  %2 = load ptr, ptr %m, align 8
  call void @_ZN13mk_bounded_ppC2EP3astR11ast_managerj(ptr noundef nonnull align 8 dereferenceable(20) %ref.tmp, ptr noundef %call3, ptr noundef nonnull align 8 dereferenceable(976) %2, i32 noundef 2)
  %call4 = call noundef nonnull align 8 dereferenceable(8) ptr @_ZlsRSoRK13mk_bounded_pp(ptr noundef nonnull align 8 dereferenceable(8) %call, ptr noundef nonnull align 8 dereferenceable(20) %ref.tmp)
  %call5 = call noundef nonnull align 8 dereferenceable(8) ptr @_ZStlsISt11char_traitsIcEERSt13basic_ostreamIcT_ES5_PKc(ptr noundef nonnull align 8 dereferenceable(8) %call4, ptr noundef @.str.7)
  %3 = load ptr, ptr %out.addr, align 8
  %call6 = call noundef nonnull align 8 dereferenceable(8) ptr @_ZStlsISt11char_traitsIcEERSt13basic_ostreamIcT_ES5_PKc(ptr noundef nonnull align 8 dereferenceable(8) %3, ptr noundef @.str.53)
  %4 = load ptr, ptr %nc.addr, align 8
  %call7 = call noundef ptr @_ZNK3smt10theory_seq2nc4depsEv(ptr noundef nonnull align 8 dereferenceable(32) %4)
  %call8 = call noundef nonnull align 8 dereferenceable(8) ptr @_ZNK3smt10theory_seq12display_depsERSoPN18dependency_managerIN25scoped_dependency_managerINS0_10assumptionEE6configEE10dependencyE(ptr noundef nonnull align 8 dereferenceable(4328) %this1, ptr noundef nonnull align 8 dereferenceable(8) %call6, ptr noundef %call7)
  %call9 = call noundef nonnull align 8 dereferenceable(8) ptr @_ZStlsISt11char_traitsIcEERSt13basic_ostreamIcT_ES5_PKc(ptr noundef nonnull align 8 dereferenceable(8) %call8, ptr noundef @.str.7)
  %5 = load ptr, ptr %out.addr, align 8
  ret ptr %5
}